Certificate:
    Data:
        Version: 3 (0x2)
        Serial Number: 1 (0x1)
        Signature Algorithm: sha256WithRSAEncryption
        Issuer: C=IN, ST=UP, O=OpKey
        Validity
            Not Before: Feb  2 10:38:02 2018 GMT
            Not After : Jan 31 10:38:02 2028 GMT
        Subject: C=IN, ST=UP, O=OpKey, OU=OpKey, CN=translate.googleapis.com
        Subject Public Key Info:
            Public Key Algorithm: rsaEncryption
            RSA Public Key: (2048 bit)
                Modulus (2048 bit):
                    00:d7:64:6a:99:7f:95:9d:e0:c1:c6:29:b8:10:82:
                    72:ce:6c:65:a6:4e:14:74:d9:7d:5d:54:b2:30:c2:
                    75:2e:06:11:25:b9:96:d0:89:03:45:13:77:08:2c:
                    72:e8:a3:8e:99:bb:47:2e:60:54:29:16:20:3b:d2:
                    28:d2:06:2f:a0:03:d5:32:7b:28:4a:be:6f:89:5f:
                    cb:8a:ea:76:72:f0:09:c5:5d:0a:c7:13:8c:60:84:
                    67:14:08:32:33:84:91:e0:a7:2a:d7:c7:7f:00:b5:
                    bb:bf:a7:27:fd:dd:5c:26:b8:e1:d3:c2:b0:cc:b1:
                    5e:04:f5:0d:b1:96:aa:4c:9a:ee:42:f6:6c:4a:37:
                    59:9f:71:a5:8e:f0:59:b8:42:74:4d:b2:e3:2d:35:
                    c5:e2:67:16:dc:8e:ea:7a:bf:e0:e8:ed:3c:2e:4f:
                    52:7e:c5:25:73:34:4c:00:71:9d:0c:38:23:4c:c0:
                    ed:45:71:92:37:6a:fc:00:e7:38:a7:9b:05:e5:7b:
                    1c:b4:26:ed:29:f1:a2:30:91:f5:a4:e7:e4:bc:9a:
                    d8:d7:5e:85:29:fc:01:90:60:ee:3a:d4:01:3e:a3:
                    12:2d:1f:8f:f0:0e:5c:c5:fc:63:c4:31:54:07:39:
                    ba:e4:18:97:9e:50:1d:55:18:75:98:48:f1:11:69:
                    ed:a5
                Exponent: 65537 (0x10001)
        X509v3 extensions:
            X509v3 Basic Constraints: 
                CA:FALSE
            Netscape Comment: 
                OpenSSL Generated Certificate
            X509v3 Subject Key Identifier: 
                55:5E:6B:70:EF:D8:65:5D:46:B7:BE:79:8D:D5:20:D8:AE:00:C2:21
            X509v3 Authority Key Identifier: 
                keyid:A4:99:B5:30:91:E8:0B:19:FE:14:0E:79:8E:7F:56:94:2E:7D:57:A0
                DirName:/C=IN/ST=UP/O=OpKey
                serial:80:E1:05:01:C3:F6:C6:37

            X509v3 Subject Alternative Name: 
                DNS:translate.googleapis.com
    Signature Algorithm: sha256WithRSAEncryption
        7c:7d:28:b1:0a:9d:71:80:20:b7:89:44:e6:30:b6:1b:2a:e5:
        6e:64:4c:f0:01:e5:ba:55:74:7c:d9:25:2e:d7:f3:80:47:c1:
        78:45:0d:8d:58:63:47:7d:0d:40:8e:fc:35:af:c3:99:e1:b0:
        4f:1d:5b:13:37:b8:00:33:5e:e8:6c:ca:b2:04:df:11:7b:17:
        ba:51:88:ff:c4:15:7e:c4:84:95:98:53:2a:72:c4:33:2a:bc:
        02:28:fc:d7:06:b8:dd:95:15:77:8b:d2:a6:50:b4:e9:6b:e3:
        3b:03:5f:26:63:b0:9f:07:06:d0:67:be:0f:49:4e:b2:b0:f5:
        2d:a8
-----BEGIN CERTIFICATE-----
MIIDXjCCAsegAwIBAgIBATANBgkqhkiG9w0BAQsFADAqMQswCQYDVQQGEwJJTjEL
MAkGA1UECBMCVVAxDjAMBgNVBAoTBU9wS2V5MB4XDTE4MDIwMjEwMzgwMloXDTI4
MDEzMTEwMzgwMlowXTELMAkGA1UEBhMCSU4xCzAJBgNVBAgTAlVQMQ4wDAYDVQQK
EwVPcEtleTEOMAwGA1UECxMFT3BLZXkxITAfBgNVBAMTGHRyYW5zbGF0ZS5nb29n
bGVhcGlzLmNvbTCCASIwDQYJKoZIhvcNAQEBBQADggEPADCCAQoCggEBANdkapl/
lZ3gwcYpuBCCcs5sZaZOFHTZfV1UsjDCdS4GESW5ltCJA0UTdwgscuijjpm7Ry5g
VCkWIDvSKNIGL6AD1TJ7KEq+b4lfy4rqdnLwCcVdCscTjGCEZxQIMjOEkeCnKtfH
fwC1u7+nJ/3dXCa44dPCsMyxXgT1DbGWqkya7kL2bEo3WZ9xpY7wWbhCdE2y4y01
xeJnFtyO6nq/4OjtPC5PUn7FJXM0TABxnQw4I0zA7UVxkjdq/ADnOKebBeV7HLQm
7SnxojCR9aTn5Lya2NdehSn8AZBg7jrUAT6jEi0fj/AOXMX8Y8QxVAc5uuQYl55Q
HVUYdZhI8RFp7aUCAwEAAaOB3DCB2TAJBgNVHRMEAjAAMCwGCWCGSAGG+EIBDQQf
Fh1PcGVuU1NMIEdlbmVyYXRlZCBDZXJ0aWZpY2F0ZTAdBgNVHQ4EFgQUVV5rcO/Y
ZV1Gt755jdUg2K4AwiEwWgYDVR0jBFMwUYAUpJm1MJHoCxn+FA55jn9WlC59V6Ch
LqQsMCoxCzAJBgNVBAYTAklOMQswCQYDVQQIEwJVUDEOMAwGA1UEChMFT3BLZXmC
CQCA4QUBw/bGNzAjBgNVHREEHDAaghh0cmFuc2xhdGUuZ29vZ2xlYXBpcy5jb20w
DQYJKoZIhvcNAQELBQADgYEAfH0osQqdcYAgt4lE5jC2GyrlbmRM8AHlulV0fNkl
LtfzgEfBeEUNjVhjR30NQI78Na/DmeGwTx1bEze4ADNe6GzKsgTfEXsXulGI/8QV
fsSElZhTKnLEMyq8Aij81wa43ZUVd4vSplC06WvjOwNfJmOwnwcG0Ge+D0lOsrD1
Lag=
-----END CERTIFICATE-----
