Certificate:
    Data:
        Version: 3 (0x2)
        Serial Number: 2 (0x2)
        Signature Algorithm: sha256WithRSAEncryption
        Issuer: C=IN, ST=UP, O=OpKey
        Validity
            Not Before: Feb  2 10:38:06 2018 GMT
            Not After : Jan 31 10:38:06 2028 GMT
        Subject: C=IN, ST=UP, O=OpKey, OU=OpKey, CN=www.google.com
        Subject Public Key Info:
            Public Key Algorithm: rsaEncryption
            RSA Public Key: (2048 bit)
                Modulus (2048 bit):
                    00:dd:46:08:0e:14:93:26:ec:c6:5b:57:5e:0e:9d:
                    51:4f:86:24:9d:30:07:f5:48:7e:70:cc:3a:fa:d9:
                    b6:47:d9:d0:9d:2c:66:5f:fb:3d:d0:6a:68:82:e7:
                    30:b0:67:31:0e:3f:88:27:ef:bc:67:3d:fe:03:8d:
                    e9:02:84:40:59:ae:9d:fc:63:59:77:44:41:f2:18:
                    28:79:b3:42:b5:d9:ee:de:92:99:36:45:bb:01:98:
                    f1:8c:5e:a6:6e:0c:ef:07:9b:72:96:ae:7c:b1:c9:
                    d5:25:f5:c9:d7:30:12:e8:f4:c6:c5:65:47:0b:52:
                    e6:1d:54:29:91:db:29:ea:c3:e9:cc:6e:5e:f1:8e:
                    87:eb:16:23:ab:5c:39:12:82:9a:50:03:51:cf:44:
                    65:d1:15:7b:30:b6:fc:33:e2:38:52:92:71:1a:1c:
                    c1:bf:f6:42:e3:28:89:02:4f:3e:ed:3b:a7:e2:9f:
                    e2:8d:bb:f8:38:49:30:ff:a5:9d:0d:f4:73:88:1f:
                    cf:a4:cd:c6:a1:c4:1b:d1:48:b9:ea:4d:c5:4f:66:
                    35:d8:41:4d:e3:8a:15:9d:7d:ad:3f:ca:86:e6:2d:
                    37:c3:81:21:5a:50:d1:60:36:ee:4b:a8:c5:65:f8:
                    fe:3d:f5:2e:b9:9b:06:e1:14:a3:03:63:14:4e:52:
                    d2:e7
                Exponent: 65537 (0x10001)
        X509v3 extensions:
            X509v3 Basic Constraints: 
                CA:FALSE
            Netscape Comment: 
                OpenSSL Generated Certificate
            X509v3 Subject Key Identifier: 
                9A:04:46:CC:30:BC:E0:9E:86:F4:D1:5E:1C:F0:5F:B7:02:51:CB:BD
            X509v3 Authority Key Identifier: 
                keyid:A4:99:B5:30:91:E8:0B:19:FE:14:0E:79:8E:7F:56:94:2E:7D:57:A0
                DirName:/C=IN/ST=UP/O=OpKey
                serial:80:E1:05:01:C3:F6:C6:37

            X509v3 Subject Alternative Name: 
                DNS:www.google.com
    Signature Algorithm: sha256WithRSAEncryption
        39:06:82:15:74:90:08:e7:66:28:a5:21:f2:14:4f:80:82:0b:
        b5:d3:b9:f5:49:97:11:46:d7:5c:95:14:83:e2:0b:22:6b:16:
        26:ba:bf:55:e7:cd:59:a1:06:f1:e0:83:0b:03:e6:a9:4f:0e:
        f3:22:72:7c:20:ca:85:08:17:59:f5:42:c3:97:6b:5b:6a:e0:
        0c:9e:a3:98:a6:d2:9b:86:be:c6:eb:79:56:de:92:e7:c9:22:
        69:b0:4a:5c:e9:60:5a:33:76:46:56:c6:56:6b:e7:a3:1a:24:
        f6:a1:be:d0:ef:dc:0a:3c:90:0c:e8:01:7e:b6:0a:d1:11:4d:
        5d:02
-----BEGIN CERTIFICATE-----
MIIDSjCCArOgAwIBAgIBAjANBgkqhkiG9w0BAQsFADAqMQswCQYDVQQGEwJJTjEL
MAkGA1UECBMCVVAxDjAMBgNVBAoTBU9wS2V5MB4XDTE4MDIwMjEwMzgwNloXDTI4
MDEzMTEwMzgwNlowUzELMAkGA1UEBhMCSU4xCzAJBgNVBAgTAlVQMQ4wDAYDVQQK
EwVPcEtleTEOMAwGA1UECxMFT3BLZXkxFzAVBgNVBAMTDnd3dy5nb29nbGUuY29t
MIIBIjANBgkqhkiG9w0BAQEFAAOCAQ8AMIIBCgKCAQEA3UYIDhSTJuzGW1deDp1R
T4YknTAH9Uh+cMw6+tm2R9nQnSxmX/s90GpogucwsGcxDj+IJ++8Zz3+A43pAoRA
Wa6d/GNZd0RB8hgoebNCtdnu3pKZNkW7AZjxjF6mbgzvB5tylq58scnVJfXJ1zAS
6PTGxWVHC1LmHVQpkdsp6sPpzG5e8Y6H6xYjq1w5EoKaUANRz0Rl0RV7MLb8M+I4
UpJxGhzBv/ZC4yiJAk8+7Tun4p/ijbv4OEkw/6WdDfRziB/PpM3GocQb0Ui56k3F
T2Y12EFN44oVnX2tP8qG5i03w4EhWlDRYDbuS6jFZfj+PfUuuZsG4RSjA2MUTlLS
5wIDAQABo4HSMIHPMAkGA1UdEwQCMAAwLAYJYIZIAYb4QgENBB8WHU9wZW5TU0wg
R2VuZXJhdGVkIENlcnRpZmljYXRlMB0GA1UdDgQWBBSaBEbMMLzgnob00V4c8F+3
AlHLvTBaBgNVHSMEUzBRgBSkmbUwkegLGf4UDnmOf1aULn1XoKEupCwwKjELMAkG
A1UEBhMCSU4xCzAJBgNVBAgTAlVQMQ4wDAYDVQQKEwVPcEtleYIJAIDhBQHD9sY3
MBkGA1UdEQQSMBCCDnd3dy5nb29nbGUuY29tMA0GCSqGSIb3DQEBCwUAA4GBADkG
ghV0kAjnZiilIfIUT4CCC7XTufVJlxFG11yVFIPiCyJrFia6v1XnzVmhBvHggwsD
5qlPDvMicnwgyoUIF1n1QsOXa1tq4Ayeo5im0puGvsbreVbekufJImmwSlzpYFoz
dkZWxlZr56MaJPahvtDv3Ao8kAzoAX62CtERTV0C
-----END CERTIFICATE-----
