Certificate:
    Data:
        Version: 3 (0x2)
        Serial Number: 3 (0x3)
        Signature Algorithm: sha256WithRSAEncryption
        Issuer: C=IN, ST=UP, O=OpKey
        Validity
            Not Before: Feb  2 10:38:09 2018 GMT
            Not After : Jan 31 10:38:09 2028 GMT
        Subject: C=IN, ST=UP, O=OpKey, OU=OpKey, CN=www.googleapis.com
        Subject Public Key Info:
            Public Key Algorithm: rsaEncryption
            RSA Public Key: (2048 bit)
                Modulus (2048 bit):
                    00:93:fb:6e:04:f2:11:79:91:42:45:36:1b:40:a3:
                    ab:3f:22:af:2c:fd:4a:d8:ae:51:ce:a4:f2:e8:95:
                    1a:ba:34:c4:a2:0a:38:52:55:23:93:f6:fb:66:f2:
                    48:6d:fa:76:d1:2f:69:f1:b4:31:d4:91:a1:49:2c:
                    9b:f2:2a:ca:ba:0a:84:8b:d7:b6:06:08:cf:8c:69:
                    3e:12:00:17:a4:fd:ad:15:44:e5:2c:37:4e:55:bb:
                    78:6f:da:4b:c0:85:0e:64:85:93:7f:d2:87:5f:0a:
                    f2:5f:18:6e:52:93:38:7b:af:82:99:40:25:61:b4:
                    c7:5e:9e:05:f9:03:42:e9:51:64:20:b2:76:6a:f0:
                    4e:7c:18:7d:5f:ce:77:4b:4f:7b:7a:2e:f9:00:59:
                    20:ef:2c:31:92:d4:a3:c3:d2:2d:6d:3a:52:bf:9d:
                    28:1e:21:7a:88:ab:5f:73:24:65:58:8f:df:d2:ee:
                    89:21:97:20:1e:b4:30:14:99:61:00:23:7c:57:76:
                    95:94:aa:02:65:b4:c1:b7:97:e9:15:ed:d7:71:e9:
                    7c:a4:75:da:76:8d:b3:93:c8:c3:73:4d:0e:f6:8c:
                    0d:72:1a:ba:c3:a4:11:81:22:56:2f:c3:07:46:74:
                    e3:fb:d5:62:56:09:e4:67:7c:f9:cb:65:ef:dc:2c:
                    cd:45
                Exponent: 65537 (0x10001)
        X509v3 extensions:
            X509v3 Basic Constraints: 
                CA:FALSE
            Netscape Comment: 
                OpenSSL Generated Certificate
            X509v3 Subject Key Identifier: 
                23:06:28:91:A4:15:15:9E:60:ED:FD:78:98:22:9C:1B:95:5B:3F:27
            X509v3 Authority Key Identifier: 
                keyid:A4:99:B5:30:91:E8:0B:19:FE:14:0E:79:8E:7F:56:94:2E:7D:57:A0
                DirName:/C=IN/ST=UP/O=OpKey
                serial:80:E1:05:01:C3:F6:C6:37

            X509v3 Subject Alternative Name: 
                DNS:www.googleapis.com
    Signature Algorithm: sha256WithRSAEncryption
        31:7f:cc:43:3c:f4:b4:ea:d4:08:36:bb:87:b6:40:87:88:ae:
        92:d9:5f:87:c7:73:05:a7:0f:81:4b:e0:a5:69:6e:1f:d2:a0:
        76:4c:81:cf:cf:43:3a:f7:27:4c:ba:3f:42:71:fc:2f:07:59:
        e0:8e:a9:c7:06:aa:56:5b:2e:ae:4c:3f:32:3f:75:f7:c9:5d:
        e6:27:9e:49:8b:77:74:3f:55:c6:ac:1c:bf:e7:a5:ce:2d:54:
        80:4e:25:22:2f:42:6d:68:78:ea:5d:a6:53:ff:11:fe:a4:94:
        91:dd:4a:ad:e5:97:32:28:6d:31:11:5a:23:01:14:e3:53:71:
        3e:38
-----BEGIN CERTIFICATE-----
MIIDUjCCArugAwIBAgIBAzANBgkqhkiG9w0BAQsFADAqMQswCQYDVQQGEwJJTjEL
MAkGA1UECBMCVVAxDjAMBgNVBAoTBU9wS2V5MB4XDTE4MDIwMjEwMzgwOVoXDTI4
MDEzMTEwMzgwOVowVzELMAkGA1UEBhMCSU4xCzAJBgNVBAgTAlVQMQ4wDAYDVQQK
EwVPcEtleTEOMAwGA1UECxMFT3BLZXkxGzAZBgNVBAMTEnd3dy5nb29nbGVhcGlz
LmNvbTCCASIwDQYJKoZIhvcNAQEBBQADggEPADCCAQoCggEBAJP7bgTyEXmRQkU2
G0Cjqz8iryz9StiuUc6k8uiVGro0xKIKOFJVI5P2+2bySG36dtEvafG0MdSRoUks
m/IqyroKhIvXtgYIz4xpPhIAF6T9rRVE5Sw3TlW7eG/aS8CFDmSFk3/Sh18K8l8Y
blKTOHuvgplAJWG0x16eBfkDQulRZCCydmrwTnwYfV/Od0tPe3ou+QBZIO8sMZLU
o8PSLW06Ur+dKB4heoirX3MkZViP39LuiSGXIB60MBSZYQAjfFd2lZSqAmW0wbeX
6RXt13HpfKR12naNs5PIw3NNDvaMDXIausOkEYEiVi/DB0Z04/vVYlYJ5Gd8+ctl
79wszUUCAwEAAaOB1jCB0zAJBgNVHRMEAjAAMCwGCWCGSAGG+EIBDQQfFh1PcGVu
U1NMIEdlbmVyYXRlZCBDZXJ0aWZpY2F0ZTAdBgNVHQ4EFgQUIwYokaQVFZ5g7f14
mCKcG5VbPycwWgYDVR0jBFMwUYAUpJm1MJHoCxn+FA55jn9WlC59V6ChLqQsMCox
CzAJBgNVBAYTAklOMQswCQYDVQQIEwJVUDEOMAwGA1UEChMFT3BLZXmCCQCA4QUB
w/bGNzAdBgNVHREEFjAUghJ3d3cuZ29vZ2xlYXBpcy5jb20wDQYJKoZIhvcNAQEL
BQADgYEAMX/MQzz0tOrUCDa7h7ZAh4iuktlfh8dzBacPgUvgpWluH9KgdkyBz89D
OvcnTLo/QnH8LwdZ4I6pxwaqVlsurkw/Mj9198ld5ieeSYt3dD9Vxqwcv+elzi1U
gE4lIi9CbWh46l2mU/8R/qSUkd1KreWXMihtMRFaIwEU41NxPjg=
-----END CERTIFICATE-----
