Certificate:
    Data:
        Version: 3 (0x2)
        Serial Number: 4 (0x4)
        Signature Algorithm: sha256WithRSAEncryption
        Issuer: C=IN, ST=UP, O=OpKey
        Validity
            Not Before: Feb  2 10:38:11 2018 GMT
            Not After : Jan 31 10:38:11 2028 GMT
        Subject: C=IN, ST=UP, O=OpKey, OU=OpKey, CN=www.gstatic.com
        Subject Public Key Info:
            Public Key Algorithm: rsaEncryption
            RSA Public Key: (2048 bit)
                Modulus (2048 bit):
                    00:80:f6:2a:a1:4d:fd:60:86:2c:4a:fe:a4:ef:60:
                    7d:eb:7e:c5:58:34:f8:75:dc:6d:60:48:9d:53:3c:
                    61:cd:d0:ed:5b:fb:df:2b:a9:f5:b7:3b:76:16:85:
                    57:6e:67:79:9e:fb:ea:a8:dd:1f:cc:f8:f1:f5:c2:
                    51:01:31:bb:9a:75:94:55:3b:f6:9a:f1:de:5c:08:
                    d7:ab:8d:fb:ff:3e:06:30:c5:ae:be:4f:0d:74:aa:
                    1a:57:cf:63:c5:b9:60:6d:88:3e:da:b7:95:08:44:
                    36:21:56:ce:ae:64:dc:2f:0c:cd:48:bc:91:50:38:
                    87:f9:89:f5:62:15:29:c0:ca:8e:17:2b:56:8a:4d:
                    cf:0f:bc:55:e8:78:80:78:fe:2f:cc:4a:de:07:ab:
                    f0:b4:55:53:cc:5b:0b:34:76:82:c1:f2:a7:e7:f9:
                    aa:e2:8e:4a:c6:c9:29:4f:30:9f:00:90:42:f6:33:
                    b6:ec:35:de:2a:a7:0a:68:88:bc:dd:dd:3e:e5:99:
                    0f:0f:d0:06:dc:13:fd:d0:84:de:06:b9:4f:c2:7c:
                    dc:9f:22:84:13:b9:cd:00:b3:23:6a:bf:47:cf:ca:
                    68:a9:44:89:c1:15:2f:b9:2f:62:5b:b8:2e:94:44:
                    77:05:e2:35:22:71:8e:43:9f:74:30:16:47:b7:b9:
                    43:3d
                Exponent: 65537 (0x10001)
        X509v3 extensions:
            X509v3 Basic Constraints: 
                CA:FALSE
            Netscape Comment: 
                OpenSSL Generated Certificate
            X509v3 Subject Key Identifier: 
                6F:70:3A:EF:F7:55:5D:40:BB:8C:C6:A8:BF:59:B6:EC:DF:E4:31:F3
            X509v3 Authority Key Identifier: 
                keyid:A4:99:B5:30:91:E8:0B:19:FE:14:0E:79:8E:7F:56:94:2E:7D:57:A0
                DirName:/C=IN/ST=UP/O=OpKey
                serial:80:E1:05:01:C3:F6:C6:37

            X509v3 Subject Alternative Name: 
                DNS:www.gstatic.com
    Signature Algorithm: sha256WithRSAEncryption
        6d:12:97:e4:7c:10:a2:09:f9:8a:6d:f6:dd:e1:9d:ff:0e:86:
        3b:32:b4:6d:3a:18:3c:00:0c:02:06:c9:ea:41:66:a1:d4:53:
        ad:a8:0b:fa:27:9a:e4:8a:d1:5f:c5:d0:c8:ee:87:e4:fc:11:
        b4:fa:4a:58:c5:35:88:51:04:78:73:83:b7:f6:9b:12:f2:17:
        f3:78:93:73:40:d7:73:ab:de:37:3e:99:85:6a:3f:d7:c6:aa:
        d8:51:85:07:b1:d1:2f:8b:6d:0a:e6:cf:99:e4:16:4d:61:bd:
        4e:56:3b:86:bb:11:23:fc:90:25:4a:e9:0d:3e:4d:11:0f:a1:
        77:50
-----BEGIN CERTIFICATE-----
MIIDTDCCArWgAwIBAgIBBDANBgkqhkiG9w0BAQsFADAqMQswCQYDVQQGEwJJTjEL
MAkGA1UECBMCVVAxDjAMBgNVBAoTBU9wS2V5MB4XDTE4MDIwMjEwMzgxMVoXDTI4
MDEzMTEwMzgxMVowVDELMAkGA1UEBhMCSU4xCzAJBgNVBAgTAlVQMQ4wDAYDVQQK
EwVPcEtleTEOMAwGA1UECxMFT3BLZXkxGDAWBgNVBAMTD3d3dy5nc3RhdGljLmNv
bTCCASIwDQYJKoZIhvcNAQEBBQADggEPADCCAQoCggEBAID2KqFN/WCGLEr+pO9g
fet+xVg0+HXcbWBInVM8Yc3Q7Vv73yup9bc7dhaFV25neZ776qjdH8z48fXCUQEx
u5p1lFU79prx3lwI16uN+/8+BjDFrr5PDXSqGlfPY8W5YG2IPtq3lQhENiFWzq5k
3C8MzUi8kVA4h/mJ9WIVKcDKjhcrVopNzw+8Veh4gHj+L8xK3ger8LRVU8xbCzR2
gsHyp+f5quKOSsbJKU8wnwCQQvYztuw13iqnCmiIvN3dPuWZDw/QBtwT/dCE3ga5
T8J83J8ihBO5zQCzI2q/R8/KaKlEicEVL7kvYlu4LpREdwXiNSJxjkOfdDAWR7e5
Qz0CAwEAAaOB0zCB0DAJBgNVHRMEAjAAMCwGCWCGSAGG+EIBDQQfFh1PcGVuU1NM
IEdlbmVyYXRlZCBDZXJ0aWZpY2F0ZTAdBgNVHQ4EFgQUb3A67/dVXUC7jMaov1m2
7N/kMfMwWgYDVR0jBFMwUYAUpJm1MJHoCxn+FA55jn9WlC59V6ChLqQsMCoxCzAJ
BgNVBAYTAklOMQswCQYDVQQIEwJVUDEOMAwGA1UEChMFT3BLZXmCCQCA4QUBw/bG
NzAaBgNVHREEEzARgg93d3cuZ3N0YXRpYy5jb20wDQYJKoZIhvcNAQELBQADgYEA
bRKX5HwQogn5im323eGd/w6GOzK0bToYPAAMAgbJ6kFmodRTragL+iea5IrRX8XQ
yO6H5PwRtPpKWMU1iFEEeHODt/abEvIX83iTc0DXc6veNz6ZhWo/18aq2FGFB7HR
L4ttCubPmeQWTWG9TlY7hrsRI/yQJUrpDT5NEQ+hd1A=
-----END CERTIFICATE-----
