Certificate:
    Data:
        Version: 3 (0x2)
        Serial Number: 5 (0x5)
        Signature Algorithm: sha256WithRSAEncryption
        Issuer: C=IN, ST=UP, O=OpKey
        Validity
            Not Before: Feb  2 10:38:14 2018 GMT
            Not After : Jan 31 10:38:14 2028 GMT
        Subject: C=IN, ST=UP, O=OpKey, OU=OpKey, CN=clientservices.googleapis.com
        Subject Public Key Info:
            Public Key Algorithm: rsaEncryption
            RSA Public Key: (2048 bit)
                Modulus (2048 bit):
                    00:aa:79:c6:9d:fa:98:7d:a3:19:76:6a:da:0b:43:
                    e0:b0:b1:ea:d9:a3:bd:83:2e:48:98:21:59:b2:a0:
                    8c:e0:38:87:db:e7:67:b5:20:d1:41:de:a8:21:28:
                    2e:3c:50:0c:ee:57:43:ca:02:f7:93:8a:73:8a:c8:
                    b9:8e:4b:99:0e:cd:90:70:b3:69:ba:a9:0a:fd:47:
                    72:69:68:42:36:f9:5a:0e:ae:a6:03:c3:04:6c:c6:
                    85:6c:49:16:d6:21:16:dc:fe:e1:a1:70:22:2f:14:
                    f6:c1:4d:d6:2a:71:7b:e1:34:08:ea:90:f5:fe:36:
                    bb:cb:f4:4e:ad:2d:1f:06:1c:55:b2:70:bd:d0:c6:
                    d1:47:e5:e8:c2:d4:42:ae:26:91:bb:5b:09:0e:d0:
                    6c:1c:d8:b8:cf:99:b6:8e:8c:ed:38:ac:0b:66:d9:
                    16:1f:88:20:44:b2:34:6e:20:7b:ff:b1:4e:12:d0:
                    57:1f:bd:f6:5a:4b:3c:cd:e9:a2:57:04:be:10:3c:
                    8f:5b:72:fb:9f:77:90:d3:a8:29:42:20:1a:ab:1a:
                    c1:ea:a6:82:d8:dd:2d:a0:4e:bd:64:41:bd:22:71:
                    7a:8f:61:53:b9:a8:bd:d8:b3:95:b1:8b:42:2f:f2:
                    6e:82:7a:01:c5:4c:7b:d4:f9:9e:69:25:5c:34:9b:
                    bf:7f
                Exponent: 65537 (0x10001)
        X509v3 extensions:
            X509v3 Basic Constraints: 
                CA:FALSE
            Netscape Comment: 
                OpenSSL Generated Certificate
            X509v3 Subject Key Identifier: 
                B3:3B:CB:58:DE:06:FD:35:81:30:49:BE:0F:C1:D1:5E:B3:ED:60:B7
            X509v3 Authority Key Identifier: 
                keyid:A4:99:B5:30:91:E8:0B:19:FE:14:0E:79:8E:7F:56:94:2E:7D:57:A0
                DirName:/C=IN/ST=UP/O=OpKey
                serial:80:E1:05:01:C3:F6:C6:37

            X509v3 Subject Alternative Name: 
                DNS:clientservices.googleapis.com
    Signature Algorithm: sha256WithRSAEncryption
        1f:80:57:4a:92:97:f1:fd:33:0e:f7:6e:61:44:56:b4:3d:63:
        b2:73:cf:ae:ce:44:b1:b9:e7:38:8a:87:ee:54:17:45:47:95:
        9e:fb:83:1e:43:ac:31:3e:bf:b0:56:09:0a:c8:ef:ca:41:9d:
        cc:5f:d9:d1:32:bf:a1:23:d1:c3:77:48:ba:ad:3f:1e:bf:99:
        2b:97:ba:7b:f5:00:40:a5:cd:e3:59:81:4e:4b:f8:15:1f:7e:
        10:56:d0:62:43:c7:25:37:c2:ae:17:03:04:db:ce:46:1c:13:
        a3:fe:7d:0f:6f:fc:7e:0c:bf:e3:16:1c:7f:8c:94:d6:7a:4b:
        79:ea
-----BEGIN CERTIFICATE-----
MIIDaDCCAtGgAwIBAgIBBTANBgkqhkiG9w0BAQsFADAqMQswCQYDVQQGEwJJTjEL
MAkGA1UECBMCVVAxDjAMBgNVBAoTBU9wS2V5MB4XDTE4MDIwMjEwMzgxNFoXDTI4
MDEzMTEwMzgxNFowYjELMAkGA1UEBhMCSU4xCzAJBgNVBAgTAlVQMQ4wDAYDVQQK
EwVPcEtleTEOMAwGA1UECxMFT3BLZXkxJjAkBgNVBAMTHWNsaWVudHNlcnZpY2Vz
Lmdvb2dsZWFwaXMuY29tMIIBIjANBgkqhkiG9w0BAQEFAAOCAQ8AMIIBCgKCAQEA
qnnGnfqYfaMZdmraC0PgsLHq2aO9gy5ImCFZsqCM4DiH2+dntSDRQd6oISguPFAM
7ldDygL3k4pzisi5jkuZDs2QcLNpuqkK/UdyaWhCNvlaDq6mA8MEbMaFbEkW1iEW
3P7hoXAiLxT2wU3WKnF74TQI6pD1/ja7y/ROrS0fBhxVsnC90MbRR+XowtRCriaR
u1sJDtBsHNi4z5m2joztOKwLZtkWH4ggRLI0biB7/7FOEtBXH732Wks8zemiVwS+
EDyPW3L7n3eQ06gpQiAaqxrB6qaC2N0toE69ZEG9InF6j2FTuai92LOVsYtCL/Ju
gnoBxUx71PmeaSVcNJu/fwIDAQABo4HhMIHeMAkGA1UdEwQCMAAwLAYJYIZIAYb4
QgENBB8WHU9wZW5TU0wgR2VuZXJhdGVkIENlcnRpZmljYXRlMB0GA1UdDgQWBBSz
O8tY3gb9NYEwSb4PwdFes+1gtzBaBgNVHSMEUzBRgBSkmbUwkegLGf4UDnmOf1aU
Ln1XoKEupCwwKjELMAkGA1UEBhMCSU4xCzAJBgNVBAgTAlVQMQ4wDAYDVQQKEwVP
cEtleYIJAIDhBQHD9sY3MCgGA1UdEQQhMB+CHWNsaWVudHNlcnZpY2VzLmdvb2ds
ZWFwaXMuY29tMA0GCSqGSIb3DQEBCwUAA4GBAB+AV0qSl/H9Mw73bmFEVrQ9Y7Jz
z67ORLG55ziKh+5UF0VHlZ77gx5DrDE+v7BWCQrI78pBncxf2dEyv6Ej0cN3SLqt
Px6/mSuXunv1AEClzeNZgU5L+BUffhBW0GJDxyU3wq4XAwTbzkYcE6P+fQ9v/H4M
v+MWHH+MlNZ6S3nq
-----END CERTIFICATE-----
