Certificate:
    Data:
        Version: 3 (0x2)
        Serial Number: 6 (0x6)
        Signature Algorithm: sha256WithRSAEncryption
        Issuer: C=IN, ST=UP, O=OpKey
        Validity
            Not Before: Feb  2 10:38:16 2018 GMT
            Not After : Jan 31 10:38:16 2028 GMT
        Subject: C=IN, ST=UP, O=OpKey, OU=OpKey, CN=maps.googleapis.com
        Subject Public Key Info:
            Public Key Algorithm: rsaEncryption
            RSA Public Key: (2048 bit)
                Modulus (2048 bit):
                    00:92:3b:91:23:29:b3:f9:cf:90:1c:65:31:0d:c0:
                    61:bb:75:59:7b:8b:56:4b:92:a7:aa:65:d7:10:9b:
                    90:54:ab:94:c1:13:dd:3c:c2:d0:23:d8:b5:20:6f:
                    f0:90:1b:2b:e4:a2:10:17:b9:27:90:09:30:00:5a:
                    0b:96:19:0a:b2:d9:4f:ac:33:f0:26:3b:e4:a0:f1:
                    54:df:c6:23:61:91:f7:6a:e8:9d:4d:41:ea:1b:ed:
                    f9:e6:ff:04:2c:21:bd:87:2d:d9:77:d7:f9:82:02:
                    5e:1c:99:4c:da:32:71:7e:ef:34:2c:f3:a8:98:26:
                    f8:dd:6c:d4:be:51:ef:b2:4c:08:56:0a:03:bf:b0:
                    33:81:2a:4e:ed:12:93:4d:23:ef:04:e5:2f:20:82:
                    ab:83:99:96:43:a8:91:6d:17:7d:22:cd:ee:5e:10:
                    d5:bf:12:23:01:90:29:6a:84:55:26:dd:cb:60:c8:
                    9e:a5:a5:e4:a8:5a:1b:1a:ac:0b:4c:3b:e1:f8:2a:
                    61:5c:72:89:6c:21:83:a5:e4:4a:94:83:66:ec:bb:
                    b2:c9:40:2a:5a:70:6b:14:75:0d:e0:b9:63:92:5e:
                    14:6d:c7:8d:e6:c0:e3:85:20:da:60:80:87:05:60:
                    93:10:47:31:ac:96:56:95:0e:c5:78:56:77:25:85:
                    d8:55
                Exponent: 65537 (0x10001)
        X509v3 extensions:
            X509v3 Basic Constraints: 
                CA:FALSE
            Netscape Comment: 
                OpenSSL Generated Certificate
            X509v3 Subject Key Identifier: 
                58:1A:66:33:7E:91:BB:DA:5A:76:60:D1:25:14:13:97:60:74:1B:7C
            X509v3 Authority Key Identifier: 
                keyid:A4:99:B5:30:91:E8:0B:19:FE:14:0E:79:8E:7F:56:94:2E:7D:57:A0
                DirName:/C=IN/ST=UP/O=OpKey
                serial:80:E1:05:01:C3:F6:C6:37

            X509v3 Subject Alternative Name: 
                DNS:maps.googleapis.com
    Signature Algorithm: sha256WithRSAEncryption
        50:66:60:68:7f:c6:cb:7a:c7:20:51:51:1a:bb:8f:f8:80:16:
        39:b3:65:c2:6b:b1:99:0f:29:46:56:2e:58:58:bc:c5:d3:a7:
        01:82:a9:e3:b5:3b:2e:2e:4d:17:6f:fc:73:a7:e7:1c:10:0b:
        d6:24:9d:f2:e2:9b:de:b6:12:1c:6d:63:d5:96:5e:72:4a:ef:
        bf:72:de:15:70:7c:bc:8c:02:23:35:4f:fe:1e:7b:f0:22:ab:
        71:46:e7:55:5c:d5:a8:8e:fd:48:ca:b5:46:2b:46:18:2e:2f:
        e4:19:40:65:45:e1:16:4f:0e:05:6e:0e:18:61:b4:8b:dd:81:
        c3:63
-----BEGIN CERTIFICATE-----
MIIDVDCCAr2gAwIBAgIBBjANBgkqhkiG9w0BAQsFADAqMQswCQYDVQQGEwJJTjEL
MAkGA1UECBMCVVAxDjAMBgNVBAoTBU9wS2V5MB4XDTE4MDIwMjEwMzgxNloXDTI4
MDEzMTEwMzgxNlowWDELMAkGA1UEBhMCSU4xCzAJBgNVBAgTAlVQMQ4wDAYDVQQK
EwVPcEtleTEOMAwGA1UECxMFT3BLZXkxHDAaBgNVBAMTE21hcHMuZ29vZ2xlYXBp
cy5jb20wggEiMA0GCSqGSIb3DQEBAQUAA4IBDwAwggEKAoIBAQCSO5EjKbP5z5Ac
ZTENwGG7dVl7i1ZLkqeqZdcQm5BUq5TBE908wtAj2LUgb/CQGyvkohAXuSeQCTAA
WguWGQqy2U+sM/AmO+Sg8VTfxiNhkfdq6J1NQeob7fnm/wQsIb2HLdl31/mCAl4c
mUzaMnF+7zQs86iYJvjdbNS+Ue+yTAhWCgO/sDOBKk7tEpNNI+8E5S8ggquDmZZD
qJFtF30ize5eENW/EiMBkClqhFUm3ctgyJ6lpeSoWhsarAtMO+H4KmFccolsIYOl
5EqUg2bsu7LJQCpacGsUdQ3guWOSXhRtx43mwOOFINpggIcFYJMQRzGsllaVDsV4
VnclhdhVAgMBAAGjgdcwgdQwCQYDVR0TBAIwADAsBglghkgBhvhCAQ0EHxYdT3Bl
blNTTCBHZW5lcmF0ZWQgQ2VydGlmaWNhdGUwHQYDVR0OBBYEFFgaZjN+kbvaWnZg
0SUUE5dgdBt8MFoGA1UdIwRTMFGAFKSZtTCR6AsZ/hQOeY5/VpQufVegoS6kLDAq
MQswCQYDVQQGEwJJTjELMAkGA1UECBMCVVAxDjAMBgNVBAoTBU9wS2V5ggkAgOEF
AcP2xjcwHgYDVR0RBBcwFYITbWFwcy5nb29nbGVhcGlzLmNvbTANBgkqhkiG9w0B
AQsFAAOBgQBQZmBof8bLescgUVEau4/4gBY5s2XCa7GZDylGVi5YWLzF06cBgqnj
tTsuLk0Xb/xzp+ccEAvWJJ3y4pvethIcbWPVll5ySu+/ct4VcHy8jAIjNU/+Hnvw
IqtxRudVXNWojv1IyrVGK0YYLi/kGUBlReEWTw4Fbg4YYbSL3YHDYw==
-----END CERTIFICATE-----
