Certificate:
    Data:
        Version: 3 (0x2)
        Serial Number: 7 (0x7)
        Signature Algorithm: sha256WithRSAEncryption
        Issuer: C=IN, ST=UP, O=OpKey
        Validity
            Not Before: Feb  2 10:38:19 2018 GMT
            Not After : Jan 31 10:38:19 2028 GMT
        Subject: C=IN, ST=UP, O=OpKey, OU=OpKey, CN=code.jquery.com
        Subject Public Key Info:
            Public Key Algorithm: rsaEncryption
            RSA Public Key: (2048 bit)
                Modulus (2048 bit):
                    00:86:c7:40:33:c4:0c:28:8d:0c:6a:04:26:db:8d:
                    4c:38:61:88:45:16:4f:e3:8f:56:3f:ce:fc:ed:8e:
                    d2:94:b3:16:47:34:67:e1:ac:8f:8a:6d:0b:b0:31:
                    6f:fa:3a:b1:77:44:71:c6:b1:37:44:1d:76:62:d0:
                    7c:87:77:33:c1:ec:fe:67:97:fa:e5:14:6c:b0:7b:
                    02:cc:5d:37:43:1c:22:1a:a8:9b:3e:a0:5a:67:b3:
                    b5:53:a2:27:f9:7c:21:04:b6:ad:bb:00:67:30:0c:
                    81:f6:e6:55:ad:bc:b4:26:b4:8c:30:93:fc:bd:1f:
                    00:65:33:04:ea:ae:ea:9e:53:9d:0f:cf:5f:b4:97:
                    e9:d0:0b:9b:dd:ab:9d:cc:6b:a2:4b:ef:fb:e3:bb:
                    d3:43:08:d4:5e:72:56:84:9b:08:2e:88:0a:4b:68:
                    a6:e3:a1:7e:dd:ad:04:c2:97:5f:de:48:d0:c3:66:
                    c6:68:19:bb:07:d5:4d:de:d5:2e:d7:1e:ea:43:58:
                    bc:e3:18:10:7b:4d:61:f1:33:ac:91:fb:ba:db:ef:
                    63:74:cb:06:f0:c8:a3:13:e2:ac:12:34:4f:ba:bf:
                    3b:c3:e5:35:24:39:8d:1f:e8:ca:60:8e:7d:97:b7:
                    0f:e2:ce:fa:68:23:61:dc:5d:bc:73:26:82:a2:04:
                    73:af
                Exponent: 65537 (0x10001)
        X509v3 extensions:
            X509v3 Basic Constraints: 
                CA:FALSE
            Netscape Comment: 
                OpenSSL Generated Certificate
            X509v3 Subject Key Identifier: 
                CE:F8:AB:E7:E6:2F:60:F8:A3:BE:5C:F0:56:9A:B0:1D:75:D6:9A:0B
            X509v3 Authority Key Identifier: 
                keyid:A4:99:B5:30:91:E8:0B:19:FE:14:0E:79:8E:7F:56:94:2E:7D:57:A0
                DirName:/C=IN/ST=UP/O=OpKey
                serial:80:E1:05:01:C3:F6:C6:37

            X509v3 Subject Alternative Name: 
                DNS:code.jquery.com
    Signature Algorithm: sha256WithRSAEncryption
        35:a3:52:5c:d6:22:2b:5f:d1:c3:2e:8c:50:c2:e3:56:82:42:
        87:73:2f:5c:e5:7c:9a:3f:d3:e0:b6:2b:1e:8b:6e:71:b5:1a:
        b4:f2:e1:10:39:42:d5:ca:8b:3a:7c:33:c4:67:26:a6:98:25:
        45:32:d0:b5:01:89:e7:61:8c:8e:ee:1c:07:0e:6e:39:29:2c:
        8f:2f:23:ff:cb:86:09:ff:98:6e:27:37:62:cd:aa:f4:ff:84:
        6e:8c:27:08:c9:6a:45:65:c1:b0:40:ed:f8:23:26:69:4f:5e:
        74:1b:d5:d3:57:fb:02:bb:52:3d:b3:df:99:e6:e7:65:a2:02:
        d1:75
-----BEGIN CERTIFICATE-----
MIIDTDCCArWgAwIBAgIBBzANBgkqhkiG9w0BAQsFADAqMQswCQYDVQQGEwJJTjEL
MAkGA1UECBMCVVAxDjAMBgNVBAoTBU9wS2V5MB4XDTE4MDIwMjEwMzgxOVoXDTI4
MDEzMTEwMzgxOVowVDELMAkGA1UEBhMCSU4xCzAJBgNVBAgTAlVQMQ4wDAYDVQQK
EwVPcEtleTEOMAwGA1UECxMFT3BLZXkxGDAWBgNVBAMTD2NvZGUuanF1ZXJ5LmNv
bTCCASIwDQYJKoZIhvcNAQEBBQADggEPADCCAQoCggEBAIbHQDPEDCiNDGoEJtuN
TDhhiEUWT+OPVj/O/O2O0pSzFkc0Z+Gsj4ptC7Axb/o6sXdEccaxN0QddmLQfId3
M8Hs/meX+uUUbLB7AsxdN0McIhqomz6gWmeztVOiJ/l8IQS2rbsAZzAMgfbmVa28
tCa0jDCT/L0fAGUzBOqu6p5TnQ/PX7SX6dALm92rncxrokvv++O700MI1F5yVoSb
CC6ICktopuOhft2tBMKXX95I0MNmxmgZuwfVTd7VLtce6kNYvOMYEHtNYfEzrJH7
utvvY3TLBvDIoxPirBI0T7q/O8PlNSQ5jR/oymCOfZe3D+LO+mgjYdxdvHMmgqIE
c68CAwEAAaOB0zCB0DAJBgNVHRMEAjAAMCwGCWCGSAGG+EIBDQQfFh1PcGVuU1NM
IEdlbmVyYXRlZCBDZXJ0aWZpY2F0ZTAdBgNVHQ4EFgQUzvir5+YvYPijvlzwVpqw
HXXWmgswWgYDVR0jBFMwUYAUpJm1MJHoCxn+FA55jn9WlC59V6ChLqQsMCoxCzAJ
BgNVBAYTAklOMQswCQYDVQQIEwJVUDEOMAwGA1UEChMFT3BLZXmCCQCA4QUBw/bG
NzAaBgNVHREEEzARgg9jb2RlLmpxdWVyeS5jb20wDQYJKoZIhvcNAQELBQADgYEA
NaNSXNYiK1/Rwy6MUMLjVoJCh3MvXOV8mj/T4LYrHotucbUatPLhEDlC1cqLOnwz
xGcmppglRTLQtQGJ52GMju4cBw5uOSksjy8j/8uGCf+Ybic3Ys2q9P+EbownCMlq
RWXBsEDt+CMmaU9edBvV01f7ArtSPbPfmebnZaIC0XU=
-----END CERTIFICATE-----
