Certificate:
    Data:
        Version: 3 (0x2)
        Serial Number: 8 (0x8)
        Signature Algorithm: sha256WithRSAEncryption
        Issuer: C=IN, ST=UP, O=OpKey
        Validity
            Not Before: Feb  2 10:38:21 2018 GMT
            Not After : Jan 31 10:38:21 2028 GMT
        Subject: C=IN, ST=UP, O=OpKey, OU=OpKey, CN=ssl.gstatic.com
        Subject Public Key Info:
            Public Key Algorithm: rsaEncryption
            RSA Public Key: (2048 bit)
                Modulus (2048 bit):
                    00:99:41:de:05:0b:74:28:94:25:a2:cc:03:45:b1:
                    9e:96:e5:ff:49:12:5a:7e:96:e4:9c:8f:47:6a:4d:
                    d3:71:8b:ab:71:d8:8a:10:c1:47:06:f9:9e:f1:ea:
                    70:ab:ed:34:64:7d:44:11:36:b1:e8:53:59:12:7b:
                    30:ed:0e:73:e3:aa:3e:00:75:81:e5:e4:7c:e9:e5:
                    63:2a:b5:3b:74:58:40:cc:f3:db:9c:75:2a:fa:e5:
                    ab:ac:18:61:41:9f:6c:35:0c:bb:39:36:42:4a:74:
                    2f:a4:3d:f8:6b:c6:f0:7c:88:70:57:26:3c:c6:05:
                    ee:67:c3:68:cc:86:bc:6d:33:3a:d5:85:95:d6:c0:
                    5f:01:fb:38:3d:fc:54:d2:52:62:b5:76:b9:d2:8d:
                    fa:ca:a7:56:6a:3b:7a:bc:c3:7a:0b:35:56:46:05:
                    16:50:66:61:4f:67:3a:1c:73:38:7e:08:ab:da:6f:
                    d5:a7:f8:c4:e3:ce:ec:89:67:d6:35:20:57:a4:cc:
                    23:57:a2:f8:e8:48:41:0d:b5:6a:d0:aa:1b:25:d9:
                    22:70:c3:fa:37:7a:51:7d:ff:29:e8:4a:f3:ce:7a:
                    63:bf:db:30:62:c0:f0:0e:e6:05:21:ec:ee:ea:35:
                    2b:91:84:cc:b2:94:1e:8e:3c:d7:54:ee:80:7d:98:
                    6b:51
                Exponent: 65537 (0x10001)
        X509v3 extensions:
            X509v3 Basic Constraints: 
                CA:FALSE
            Netscape Comment: 
                OpenSSL Generated Certificate
            X509v3 Subject Key Identifier: 
                A6:5E:20:5B:DE:04:D9:C6:B9:3F:C3:13:90:7A:DC:F4:8D:5C:3D:D5
            X509v3 Authority Key Identifier: 
                keyid:A4:99:B5:30:91:E8:0B:19:FE:14:0E:79:8E:7F:56:94:2E:7D:57:A0
                DirName:/C=IN/ST=UP/O=OpKey
                serial:80:E1:05:01:C3:F6:C6:37

            X509v3 Subject Alternative Name: 
                DNS:ssl.gstatic.com
    Signature Algorithm: sha256WithRSAEncryption
        40:92:d7:42:af:4c:76:02:c9:0f:86:ef:f6:8c:bc:39:42:a3:
        ac:75:10:4f:62:8f:f8:81:09:4b:c5:51:40:0b:fd:dc:40:23:
        4b:a3:dc:c6:3c:bf:ec:1e:97:27:86:f6:77:24:99:54:50:a5:
        4b:7f:f2:50:f4:09:f5:87:b3:1a:f6:23:d0:ac:57:33:f3:ae:
        8f:1e:70:9f:7b:28:70:27:da:87:2a:e6:b2:4c:5a:d1:67:35:
        e0:b6:ee:46:9a:14:a7:d2:1e:41:ac:07:34:14:db:d7:95:57:
        98:e0:57:91:c5:6b:01:07:68:f0:83:fb:af:87:7b:da:e7:95:
        eb:fd
-----BEGIN CERTIFICATE-----
MIIDTDCCArWgAwIBAgIBCDANBgkqhkiG9w0BAQsFADAqMQswCQYDVQQGEwJJTjEL
MAkGA1UECBMCVVAxDjAMBgNVBAoTBU9wS2V5MB4XDTE4MDIwMjEwMzgyMVoXDTI4
MDEzMTEwMzgyMVowVDELMAkGA1UEBhMCSU4xCzAJBgNVBAgTAlVQMQ4wDAYDVQQK
EwVPcEtleTEOMAwGA1UECxMFT3BLZXkxGDAWBgNVBAMTD3NzbC5nc3RhdGljLmNv
bTCCASIwDQYJKoZIhvcNAQEBBQADggEPADCCAQoCggEBAJlB3gULdCiUJaLMA0Wx
npbl/0kSWn6W5JyPR2pN03GLq3HYihDBRwb5nvHqcKvtNGR9RBE2sehTWRJ7MO0O
c+OqPgB1geXkfOnlYyq1O3RYQMzz25x1Kvrlq6wYYUGfbDUMuzk2Qkp0L6Q9+GvG
8HyIcFcmPMYF7mfDaMyGvG0zOtWFldbAXwH7OD38VNJSYrV2udKN+sqnVmo7erzD
egs1VkYFFlBmYU9nOhxzOH4Iq9pv1af4xOPO7Iln1jUgV6TMI1ei+OhIQQ21atCq
GyXZInDD+jd6UX3/KehK8856Y7/bMGLA8A7mBSHs7uo1K5GEzLKUHo4811TugH2Y
a1ECAwEAAaOB0zCB0DAJBgNVHRMEAjAAMCwGCWCGSAGG+EIBDQQfFh1PcGVuU1NM
IEdlbmVyYXRlZCBDZXJ0aWZpY2F0ZTAdBgNVHQ4EFgQUpl4gW94E2ca5P8MTkHrc
9I1cPdUwWgYDVR0jBFMwUYAUpJm1MJHoCxn+FA55jn9WlC59V6ChLqQsMCoxCzAJ
BgNVBAYTAklOMQswCQYDVQQIEwJVUDEOMAwGA1UEChMFT3BLZXmCCQCA4QUBw/bG
NzAaBgNVHREEEzARgg9zc2wuZ3N0YXRpYy5jb20wDQYJKoZIhvcNAQELBQADgYEA
QJLXQq9MdgLJD4bv9oy8OUKjrHUQT2KP+IEJS8VRQAv93EAjS6Pcxjy/7B6XJ4b2
dySZVFClS3/yUPQJ9YezGvYj0KxXM/Oujx5wn3socCfahyrmskxa0Wc14LbuRpoU
p9IeQawHNBTb15VXmOBXkcVrAQdo8IP7r4d72ueV6/0=
-----END CERTIFICATE-----
