Certificate:
    Data:
        Version: 3 (0x2)
        Serial Number: 9 (0x9)
        Signature Algorithm: sha256WithRSAEncryption
        Issuer: C=IN, ST=UP, O=OpKey
        Validity
            Not Before: Feb  2 10:38:24 2018 GMT
            Not After : Jan 31 10:38:24 2028 GMT
        Subject: C=IN, ST=UP, O=OpKey, OU=OpKey, CN=csi.gstatic.com
        Subject Public Key Info:
            Public Key Algorithm: rsaEncryption
            RSA Public Key: (2048 bit)
                Modulus (2048 bit):
                    00:91:8f:33:38:49:7f:75:33:d7:50:a0:c9:3d:57:
                    2d:19:2b:56:27:2f:85:e4:86:2a:14:92:7f:6c:09:
                    fb:d0:d8:50:4a:71:2b:d0:81:49:0a:82:9e:5e:ef:
                    b7:87:c8:1d:66:b7:b4:3e:af:5c:26:31:f2:47:45:
                    c6:48:3d:a5:60:eb:3b:8a:25:37:02:6c:da:0a:77:
                    93:24:80:6f:1d:8c:a3:a6:8d:f5:39:84:19:bb:6a:
                    75:bf:a7:8c:ec:bd:e0:ca:bf:b6:59:ea:df:ee:6c:
                    61:42:9f:7c:1b:b1:ab:23:c6:f2:07:16:49:fe:3b:
                    16:99:f8:b7:77:7a:ac:49:27:8f:5a:c5:52:be:93:
                    36:5e:91:02:09:a4:c0:a2:03:91:7c:32:7a:34:82:
                    3a:b6:bf:4d:07:26:7b:d6:84:dd:d8:9f:d2:39:aa:
                    56:3a:ff:9f:91:da:c9:9b:89:3c:a5:fe:58:88:a8:
                    4b:b9:7b:69:13:83:43:77:55:06:e9:52:49:90:ff:
                    ef:c5:9d:2a:0f:39:73:61:c0:fe:f3:a2:5e:d1:9d:
                    e3:fb:42:01:fc:7e:6e:22:fc:56:92:7d:68:2a:d6:
                    4f:76:1e:9c:62:1e:63:c1:2a:61:91:06:a3:5f:7c:
                    04:87:c9:80:c0:f4:1a:f2:c9:ba:5d:41:4e:b4:5a:
                    96:71
                Exponent: 65537 (0x10001)
        X509v3 extensions:
            X509v3 Basic Constraints: 
                CA:FALSE
            Netscape Comment: 
                OpenSSL Generated Certificate
            X509v3 Subject Key Identifier: 
                4B:08:8B:EC:87:FA:75:38:D0:3C:8F:D7:EE:E0:F2:F0:50:FB:3B:9B
            X509v3 Authority Key Identifier: 
                keyid:A4:99:B5:30:91:E8:0B:19:FE:14:0E:79:8E:7F:56:94:2E:7D:57:A0
                DirName:/C=IN/ST=UP/O=OpKey
                serial:80:E1:05:01:C3:F6:C6:37

            X509v3 Subject Alternative Name: 
                DNS:csi.gstatic.com
    Signature Algorithm: sha256WithRSAEncryption
        a1:98:5a:ab:e9:4a:77:24:0e:bb:51:a4:d0:d6:96:c9:d7:11:
        7b:6b:16:bd:a8:4f:87:b9:67:34:ae:45:9e:c8:a0:b0:32:09:
        ee:3c:d7:a5:80:d7:88:c2:e9:5c:97:44:87:2b:82:9b:76:7d:
        aa:1a:36:61:d8:9d:8f:d7:4a:41:63:e4:32:e9:a1:13:1c:2a:
        34:79:9d:42:b1:99:30:29:ba:3a:29:b6:0c:8a:0e:d4:ea:7a:
        94:f4:c2:f7:2c:8d:c5:aa:6d:91:18:65:c9:5c:f8:1b:7a:99:
        1a:14:a6:9e:03:2f:44:ad:fa:5b:cf:7e:df:d4:b7:9d:56:f4:
        94:3a
-----BEGIN CERTIFICATE-----
MIIDTDCCArWgAwIBAgIBCTANBgkqhkiG9w0BAQsFADAqMQswCQYDVQQGEwJJTjEL
MAkGA1UECBMCVVAxDjAMBgNVBAoTBU9wS2V5MB4XDTE4MDIwMjEwMzgyNFoXDTI4
MDEzMTEwMzgyNFowVDELMAkGA1UEBhMCSU4xCzAJBgNVBAgTAlVQMQ4wDAYDVQQK
EwVPcEtleTEOMAwGA1UECxMFT3BLZXkxGDAWBgNVBAMTD2NzaS5nc3RhdGljLmNv
bTCCASIwDQYJKoZIhvcNAQEBBQADggEPADCCAQoCggEBAJGPMzhJf3Uz11CgyT1X
LRkrVicvheSGKhSSf2wJ+9DYUEpxK9CBSQqCnl7vt4fIHWa3tD6vXCYx8kdFxkg9
pWDrO4olNwJs2gp3kySAbx2Mo6aN9TmEGbtqdb+njOy94Mq/tlnq3+5sYUKffBux
qyPG8gcWSf47Fpn4t3d6rEknj1rFUr6TNl6RAgmkwKIDkXwyejSCOra/TQcme9aE
3dif0jmqVjr/n5HayZuJPKX+WIioS7l7aRODQ3dVBulSSZD/78WdKg85c2HA/vOi
XtGd4/tCAfx+biL8VpJ9aCrWT3YenGIeY8EqYZEGo198BIfJgMD0GvLJul1BTrRa
lnECAwEAAaOB0zCB0DAJBgNVHRMEAjAAMCwGCWCGSAGG+EIBDQQfFh1PcGVuU1NM
IEdlbmVyYXRlZCBDZXJ0aWZpY2F0ZTAdBgNVHQ4EFgQUSwiL7If6dTjQPI/X7uDy
8FD7O5swWgYDVR0jBFMwUYAUpJm1MJHoCxn+FA55jn9WlC59V6ChLqQsMCoxCzAJ
BgNVBAYTAklOMQswCQYDVQQIEwJVUDEOMAwGA1UEChMFT3BLZXmCCQCA4QUBw/bG
NzAaBgNVHREEEzARgg9jc2kuZ3N0YXRpYy5jb20wDQYJKoZIhvcNAQELBQADgYEA
oZhaq+lKdyQOu1Gk0NaWydcRe2sWvahPh7lnNK5FnsigsDIJ7jzXpYDXiMLpXJdE
hyuCm3Z9qho2Ydidj9dKQWPkMumhExwqNHmdQrGZMCm6Oim2DIoO1Op6lPTC9yyN
xaptkRhlyVz4G3qZGhSmngMvRK36W89+39S3nVb0lDo=
-----END CERTIFICATE-----
